target datalayout = "e-m:e-p270:32:32-p271:32:32-p272:64:64-i64:64-i128:128-f80:128-n8:16:32:64-S128"
target triple = "x86_64-pc-linux-gnu"

%struct.pointf_s = type { double, double }
%struct.GVJ_s = type { ptr, ptr, ptr, ptr, ptr, ptr, i32, ptr, ptr, ptr, ptr, i64, i64, ptr, i32, %struct.gvplugin_active_render_s, %struct.gvplugin_active_device_s, %struct.gvplugin_active_loadimage_t, ptr, %struct.pointf_s, i8, ptr, i32, ptr, i8, ptr, i32, i32, i32, %struct.point, %struct.point, %struct.point, %struct.point, %struct.point, i32, %struct.boxf, %struct.pointf_s, %struct.boxf, %struct.boxf, %struct.pointf_s, %struct.pointf_s, double, i32, %struct.pointf_s, %struct.boxf, %struct.pointf_s, %struct.pointf_s, i32, i32, %struct.box, %struct.box, %struct.pointf_s, %struct.pointf_s, %struct.pointf_s, i8, i8, i8, i8, i8, i8, %struct.pointf_s, %struct.pointf_s, ptr, ptr, ptr, ptr, ptr, ptr, i64, ptr }
%struct.gvplugin_active_render_s = type { ptr, i32, ptr, ptr }
%struct.gvplugin_active_device_s = type { ptr, i32, ptr, ptr }
%struct.gvplugin_active_loadimage_t = type { ptr, i32, ptr }
%struct.point = type { i32, i32 }
%struct.boxf = type { %struct.pointf_s, %struct.pointf_s }
%struct.box = type { %struct.point, %struct.point }
%struct.color_s = type { %union.anon, i32 }
%union.anon = type { [4 x double] }
%struct.obj_state_s = type { ptr, i32, %union.anon.0, i32, %struct.color_s, %struct.color_s, %struct.color_s, i32, double, i32, i32, double, ptr, double, double, double, ptr, ptr, ptr, ptr, ptr, ptr, ptr, ptr, ptr, ptr, ptr, ptr, ptr, ptr, ptr, ptr, ptr, i16, i32, i64, ptr, i64, ptr, ptr, i32, ptr, i32, ptr }
%union.anon.0 = type { ptr }

@svg_gradstyle.gradId = internal global i32 0, align 4
@.str.87 = private unnamed_addr constant [28 x i8] c"<defs>\0A<linearGradient id=\22\00", align 1
@.str.88 = private unnamed_addr constant [38 x i8] c"l_%d\22 gradientUnits=\22userSpaceOnUse\22 \00", align 1
@.str.89 = private unnamed_addr constant [5 x i8] c"x1=\22\00", align 1
@.str.90 = private unnamed_addr constant [7 x i8] c"\22 y1=\22\00", align 1
@.str.91 = private unnamed_addr constant [7 x i8] c"\22 x2=\22\00", align 1
@.str.92 = private unnamed_addr constant [7 x i8] c"\22 y2=\22\00", align 1
@.str.93 = private unnamed_addr constant [5 x i8] c"\22 >\0A\00", align 1
@.str.94 = private unnamed_addr constant [27 x i8] c"</linearGradient>\0A</defs>\0A\00", align 1

; Function Attrs: nounwind uwtable
define internal i32 @svg_gradstyle(ptr noundef %0, ptr noundef %1, i64 noundef %2) #0 {
  %4 = alloca ptr, align 8
  %5 = alloca ptr, align 8
  %6 = alloca i64, align 8
  %7 = alloca [2 x %struct.pointf_s], align 16
  %8 = alloca i32, align 4
  %9 = alloca ptr, align 8
  %10 = alloca double, align 8
  store ptr %0, ptr %4, align 8, !tbaa !3
  store ptr %1, ptr %5, align 8, !tbaa !114
  store i64 %2, ptr %6, align 8, !tbaa !115
  call void @llvm.lifetime.start.p0(i64 32, ptr %7) #9
  call void @llvm.lifetime.start.p0(i64 4, ptr %8) #9
  %11 = load i32, ptr @svg_gradstyle.gradId, align 4, !tbaa !60
  %12 = add nsw i32 %11, 1
  store i32 %12, ptr @svg_gradstyle.gradId, align 4, !tbaa !60
  store i32 %11, ptr %8, align 4, !tbaa !60
  call void @llvm.lifetime.start.p0(i64 8, ptr %9) #9
  %13 = load ptr, ptr %4, align 8, !tbaa !3
  %14 = getelementptr inbounds nuw %struct.GVJ_s, ptr %13, i32 0, i32 4
  %15 = load ptr, ptr %14, align 8, !tbaa !50
  store ptr %15, ptr %9, align 8, !tbaa !51
  call void @llvm.lifetime.start.p0(i64 8, ptr %10) #9
  %16 = load ptr, ptr %9, align 8, !tbaa !51
  %17 = getelementptr inbounds nuw %struct.obj_state_s, ptr %16, i32 0, i32 7
  %18 = load i32, ptr %17, align 8, !tbaa !120
  %19 = sitofp i32 %18 to double
  %20 = fmul double %19, 0x400921FB54442D18
  %21 = fdiv double %20, 1.800000e+02
  store double %21, ptr %10, align 8, !tbaa !121
  %22 = getelementptr inbounds [2 x %struct.pointf_s], ptr %7, i64 0, i64 1
  %23 = getelementptr inbounds nuw %struct.pointf_s, ptr %22, i32 0, i32 1
  store double 0.000000e+00, ptr %23, align 8, !tbaa !76
  %24 = getelementptr inbounds [2 x %struct.pointf_s], ptr %7, i64 0, i64 1
  %25 = getelementptr inbounds nuw %struct.pointf_s, ptr %24, i32 0, i32 0
  store double 0.000000e+00, ptr %25, align 16, !tbaa !77
  %26 = getelementptr inbounds [2 x %struct.pointf_s], ptr %7, i64 0, i64 0
  %27 = getelementptr inbounds nuw %struct.pointf_s, ptr %26, i32 0, i32 1
  store double 0.000000e+00, ptr %27, align 8, !tbaa !76
  %28 = getelementptr inbounds [2 x %struct.pointf_s], ptr %7, i64 0, i64 0
  %29 = getelementptr inbounds nuw %struct.pointf_s, ptr %28, i32 0, i32 0
  store double 0.000000e+00, ptr %29, align 16, !tbaa !77
  %30 = load ptr, ptr %5, align 8, !tbaa !114
  %31 = getelementptr inbounds [2 x %struct.pointf_s], ptr %7, i64 0, i64 0
  %32 = load i64, ptr %6, align 8, !tbaa !115
  %33 = load double, ptr %10, align 8, !tbaa !121
  call void @get_gradient_points(ptr noundef %30, ptr noundef %31, i64 noundef %32, double noundef %33, i32 noundef 0)
  %34 = load ptr, ptr %4, align 8, !tbaa !3
  %35 = call i32 @gvputs(ptr noundef %34, ptr noundef @.str.87)
  %36 = load ptr, ptr %9, align 8, !tbaa !51
  %37 = getelementptr inbounds nuw %struct.obj_state_s, ptr %36, i32 0, i32 21
  %38 = load ptr, ptr %37, align 8, !tbaa !61
  %39 = icmp ne ptr %38, null
  br i1 %39, label %40, label %48

40:                                               ; preds = %3
  %41 = load ptr, ptr %4, align 8, !tbaa !3
  %42 = load ptr, ptr %9, align 8, !tbaa !51
  %43 = getelementptr inbounds nuw %struct.obj_state_s, ptr %42, i32 0, i32 21
  %44 = load ptr, ptr %43, align 8, !tbaa !61
  %45 = call i32 @gvputs_xml(ptr noundef %41, ptr noundef %44)
  %46 = load ptr, ptr %4, align 8, !tbaa !3
  %47 = call i32 @gvputc(ptr noundef %46, i32 noundef 95)
  br label %48

48:                                               ; preds = %40, %3
  %49 = load ptr, ptr %4, align 8, !tbaa !3
  %50 = load i32, ptr %8, align 4, !tbaa !60
  call void (ptr, ptr, ...) @gvprintf(ptr noundef %49, ptr noundef @.str.88, i32 noundef %50)
  %51 = load ptr, ptr %4, align 8, !tbaa !3
  %52 = call i32 @gvputs(ptr noundef %51, ptr noundef @.str.89)
  %53 = load ptr, ptr %4, align 8, !tbaa !3
  %54 = getelementptr inbounds [2 x %struct.pointf_s], ptr %7, i64 0, i64 0
  %55 = getelementptr inbounds nuw %struct.pointf_s, ptr %54, i32 0, i32 0
  %56 = load double, ptr %55, align 16, !tbaa !77
  call void @gvprintdouble(ptr noundef %53, double noundef %56)
  %57 = load ptr, ptr %4, align 8, !tbaa !3
  %58 = call i32 @gvputs(ptr noundef %57, ptr noundef @.str.90)
  %59 = load ptr, ptr %4, align 8, !tbaa !3
  %60 = getelementptr inbounds [2 x %struct.pointf_s], ptr %7, i64 0, i64 0
  %61 = getelementptr inbounds nuw %struct.pointf_s, ptr %60, i32 0, i32 1
  %62 = load double, ptr %61, align 8, !tbaa !76
  call void @gvprintdouble(ptr noundef %59, double noundef %62)
  %63 = load ptr, ptr %4, align 8, !tbaa !3
  %64 = call i32 @gvputs(ptr noundef %63, ptr noundef @.str.91)
  %65 = load ptr, ptr %4, align 8, !tbaa !3
  %66 = getelementptr inbounds [2 x %struct.pointf_s], ptr %7, i64 0, i64 1
  %67 = getelementptr inbounds nuw %struct.pointf_s, ptr %66, i32 0, i32 0
  %68 = load double, ptr %67, align 16, !tbaa !77
  call void @gvprintdouble(ptr noundef %65, double noundef %68)
  %69 = load ptr, ptr %4, align 8, !tbaa !3
  %70 = call i32 @gvputs(ptr noundef %69, ptr noundef @.str.92)
  %71 = load ptr, ptr %4, align 8, !tbaa !3
  %72 = getelementptr inbounds [2 x %struct.pointf_s], ptr %7, i64 0, i64 1
  %73 = getelementptr inbounds nuw %struct.pointf_s, ptr %72, i32 0, i32 1
  %74 = load double, ptr %73, align 8, !tbaa !76
  call void @gvprintdouble(ptr noundef %71, double noundef %74)
  %75 = load ptr, ptr %4, align 8, !tbaa !3
  %76 = call i32 @gvputs(ptr noundef %75, ptr noundef @.str.93)
  %77 = load ptr, ptr %4, align 8, !tbaa !3
  %78 = load ptr, ptr %9, align 8, !tbaa !51
  %79 = getelementptr inbounds nuw %struct.obj_state_s, ptr %78, i32 0, i32 8
  %80 = load double, ptr %79, align 8, !tbaa !122
  %81 = fcmp ogt double %80, 0.000000e+00
  br i1 %81, label %82, label %87

82:                                               ; preds = %48
  %83 = load ptr, ptr %9, align 8, !tbaa !51
  %84 = getelementptr inbounds nuw %struct.obj_state_s, ptr %83, i32 0, i32 8
  %85 = load double, ptr %84, align 8, !tbaa !122
  %86 = fsub double %85, 1.000000e-03
  br label %88

87:                                               ; preds = %48
  br label %88

88:                                               ; preds = %87, %82
  %89 = phi double [ %86, %82 ], [ 0.000000e+00, %87 ]
  %90 = load ptr, ptr %9, align 8, !tbaa !51
  %91 = getelementptr inbounds nuw %struct.obj_state_s, ptr %90, i32 0, i32 5
  call void @svg_print_stop(ptr noundef %77, double noundef %89, ptr noundef byval(%struct.color_s) align 8 %91)
  %92 = load ptr, ptr %4, align 8, !tbaa !3
  %93 = load ptr, ptr %9, align 8, !tbaa !51
  %94 = getelementptr inbounds nuw %struct.obj_state_s, ptr %93, i32 0, i32 8
  %95 = load double, ptr %94, align 8, !tbaa !122
  %96 = fcmp ogt double %95, 0.000000e+00
  br i1 %96, label %97, label %101

97:                                               ; preds = %88
  %98 = load ptr, ptr %9, align 8, !tbaa !51
  %99 = getelementptr inbounds nuw %struct.obj_state_s, ptr %98, i32 0, i32 8
  %100 = load double, ptr %99, align 8, !tbaa !122
  br label %102

101:                                              ; preds = %88
  br label %102

102:                                              ; preds = %101, %97
  %103 = phi double [ %100, %97 ], [ 1.000000e+00, %101 ]
  %104 = load ptr, ptr %9, align 8, !tbaa !51
  %105 = getelementptr inbounds nuw %struct.obj_state_s, ptr %104, i32 0, i32 6
  call void @svg_print_stop(ptr noundef %92, double noundef %103, ptr noundef byval(%struct.color_s) align 8 %105)
  %106 = load ptr, ptr %4, align 8, !tbaa !3
  %107 = call i32 @gvputs(ptr noundef %106, ptr noundef @.str.94)
  %108 = load i32, ptr %8, align 4, !tbaa !60
  call void @llvm.lifetime.end.p0(i64 8, ptr %10) #9
  call void @llvm.lifetime.end.p0(i64 8, ptr %9) #9
  call void @llvm.lifetime.end.p0(i64 4, ptr %8) #9
  call void @llvm.lifetime.end.p0(i64 32, ptr %7) #9
  ret i32 %108
}