; Function Attrs: nounwind uwtable
define internal fastcc i32 @svg_gradstyle(ptr noundef %0, ptr noundef %1, i64 noundef %2) unnamed_addr #0 {
  %4 = alloca [2 x %struct.pointf_s], align 16
  call void @llvm.lifetime.start.p0(i64 32, ptr nonnull %4) #11
  %5 = load i32, ptr @svg_gradstyle.gradId, align 4, !tbaa !108
  %6 = add nsw i32 %5, 1
  store i32 %6, ptr @svg_gradstyle.gradId, align 4, !tbaa !108
  %7 = getelementptr inbounds nuw i8, ptr %0, i64 32
  %8 = load ptr, ptr %7, align 8, !tbaa !50
  %9 = getelementptr inbounds nuw i8, ptr %8, i64 152
  %10 = load i32, ptr %9, align 8, !tbaa !109
  %11 = sitofp i32 %10 to double
  %12 = fmul double %11, 0x400921FB54442D18
  %13 = fdiv double %12, 1.800000e+02
  call void @llvm.memset.p0.i64(ptr noundef nonnull align 16 dereferenceable(32) %4, i8 0, i64 32, i1 false)
  call void @get_gradient_points(ptr noundef %1, ptr noundef nonnull %4, i64 noundef %2, double noundef %13, i32 noundef 0) #11
  %14 = call i32 @gvputs(ptr noundef %0, ptr noundef nonnull @.str.87) #11
  %15 = getelementptr inbounds nuw i8, ptr %8, i64 256
  %16 = load ptr, ptr %15, align 8, !tbaa !59
  %.not = icmp eq ptr %16, null
  br i1 %.not, label %20, label %17

17:                                               ; preds = %3
  %18 = call i32 @gvputs_xml(ptr noundef nonnull %0, ptr noundef nonnull %16) #11
  %19 = call i32 @gvputc(ptr noundef nonnull %0, i32 noundef 95) #11
  br label %20

20:                                               ; preds = %17, %3
  %21 = getelementptr inbounds nuw i8, ptr %4, i64 8
  %22 = getelementptr inbounds nuw i8, ptr %4, i64 24
  %23 = getelementptr inbounds nuw i8, ptr %4, i64 16
  call void (ptr, ptr, ...) @gvprintf(ptr noundef nonnull %0, ptr noundef nonnull @.str.88, i32 noundef %5) #11
  %24 = call i32 @gvputs(ptr noundef nonnull %0, ptr noundef nonnull @.str.89) #11
  %25 = load double, ptr %4, align 16, !tbaa !102
  call void @gvprintdouble(ptr noundef nonnull %0, double noundef %25) #11
  %26 = call i32 @gvputs(ptr noundef nonnull %0, ptr noundef nonnull @.str.90) #11
  %27 = load double, ptr %21, align 8, !tbaa !103
  call void @gvprintdouble(ptr noundef nonnull %0, double noundef %27) #11
  %28 = call i32 @gvputs(ptr noundef nonnull %0, ptr noundef nonnull @.str.91) #11
  %29 = load double, ptr %23, align 16, !tbaa !102
  call void @gvprintdouble(ptr noundef nonnull %0, double noundef %29) #11
  %30 = call i32 @gvputs(ptr noundef nonnull %0, ptr noundef nonnull @.str.92) #11
  %31 = load double, ptr %22, align 8, !tbaa !103
  call void @gvprintdouble(ptr noundef nonnull %0, double noundef %31) #11
  %32 = call i32 @gvputs(ptr noundef nonnull %0, ptr noundef nonnull @.str.93) #11
  %33 = getelementptr inbounds nuw i8, ptr %8, i64 160
  %34 = load double, ptr %33, align 8, !tbaa !110
  %35 = fcmp ogt double %34, 0.000000e+00
  %36 = fadd double %34, -1.000000e-03
  %37 = select i1 %35, double %36, double 0.000000e+00
  %38 = getelementptr inbounds nuw i8, ptr %8, i64 72
  call fastcc void @svg_print_stop(ptr noundef nonnull %0, double noundef %37, ptr noundef nonnull byval(%struct.color_s) align 8 %38)
  %39 = load double, ptr %33, align 8, !tbaa !110
  %40 = fcmp ogt double %39, 0.000000e+00
  %41 = select i1 %40, double %39, double 1.000000e+00
  %42 = getelementptr inbounds nuw i8, ptr %8, i64 112
  call fastcc void @svg_print_stop(ptr noundef nonnull %0, double noundef %41, ptr noundef nonnull byval(%struct.color_s) align 8 %42)
  %43 = call i32 @gvputs(ptr noundef nonnull %0, ptr noundef nonnull @.str.94) #11
  call void @llvm.lifetime.end.p0(i64 32, ptr nonnull %4) #11
  ret i32 %5
}